; Function Attrs: mustprogress nofree norecurse nosync nounwind willreturn memory(argmem: readwrite) uwtable
define void @_ZN10open_spiel10phantom_go14PhantomGoBoard35RemoveLibertyFromNeighbouringChainsEt(ptr nocapture noundef nonnull align 8 dereferenceable(8706) %0, i16 noundef zeroext %1) local_unnamed_addr #4 align 2 {
  %3 = add i16 %1, 21
  %4 = getelementptr inbounds nuw i8, ptr %0, i64 3388
  %5 = getelementptr inbounds nuw i8, ptr %0, i64 740
  %6 = zext i16 %3 to i64
  %7 = getelementptr inbounds [441 x %"struct.open_spiel::phantom_go::PhantomGoBoard::Vertex"], ptr %5, i64 0, i64 %6
  %8 = load i16, ptr %7, align 2
  %9 = zext i16 %8 to i64
  %10 = getelementptr inbounds [441 x %"struct.open_spiel::phantom_go::PhantomGoBoard::Chain"], ptr %4, i64 0, i64 %9
  %11 = getelementptr inbounds nuw i8, ptr %10, i64 8
  %12 = load i16, ptr %11, align 4
  %13 = add i16 %12, -1
  store i16 %13, ptr %11, align 4
  %14 = zext i16 %1 to i32
  %15 = getelementptr inbounds nuw i8, ptr %10, i64 4
  %16 = load i16, ptr %15, align 4
  %17 = sub i16 %16, %1
  store i16 %17, ptr %15, align 4
  %18 = mul nuw i32 %14, %14
  %19 = load i32, ptr %10, align 4
  %20 = sub i32 %19, %18
  store i32 %20, ptr %10, align 4
  %21 = add i16 %1, 1
  %22 = zext i16 %21 to i64
  %23 = getelementptr inbounds [441 x %"struct.open_spiel::phantom_go::PhantomGoBoard::Vertex"], ptr %5, i64 0, i64 %22
  %24 = load i16, ptr %23, align 2
  %25 = zext i16 %24 to i64
  %26 = getelementptr inbounds [441 x %"struct.open_spiel::phantom_go::PhantomGoBoard::Chain"], ptr %4, i64 0, i64 %25
  %27 = getelementptr inbounds nuw i8, ptr %26, i64 8
  %28 = load i16, ptr %27, align 4
  %29 = add i16 %28, -1
  store i16 %29, ptr %27, align 4
  %30 = getelementptr inbounds nuw i8, ptr %26, i64 4
  %31 = load i16, ptr %30, align 4
  %32 = sub i16 %31, %1
  store i16 %32, ptr %30, align 4
  %33 = load i32, ptr %26, align 4
  %34 = sub i32 %33, %18
  store i32 %34, ptr %26, align 4
  %35 = add i16 %1, -1
  %36 = zext i16 %35 to i64
  %37 = getelementptr inbounds [441 x %"struct.open_spiel::phantom_go::PhantomGoBoard::Vertex"], ptr %5, i64 0, i64 %36
  %38 = load i16, ptr %37, align 2
  %39 = zext i16 %38 to i64
  %40 = getelementptr inbounds [441 x %"struct.open_spiel::phantom_go::PhantomGoBoard::Chain"], ptr %4, i64 0, i64 %39
  %41 = getelementptr inbounds nuw i8, ptr %40, i64 8
  %42 = load i16, ptr %41, align 4
  %43 = add i16 %42, -1
  store i16 %43, ptr %41, align 4
  %44 = getelementptr inbounds nuw i8, ptr %40, i64 4
  %45 = load i16, ptr %44, align 4
  %46 = sub i16 %45, %1
  store i16 %46, ptr %44, align 4
  %47 = load i32, ptr %40, align 4
  %48 = sub i32 %47, %18
  store i32 %48, ptr %40, align 4
  %49 = add i16 %1, -21
  %50 = zext i16 %49 to i64
  %51 = getelementptr inbounds [441 x %"struct.open_spiel::phantom_go::PhantomGoBoard::Vertex"], ptr %5, i64 0, i64 %50
  %52 = load i16, ptr %51, align 2
  %53 = zext i16 %52 to i64
  %54 = getelementptr inbounds [441 x %"struct.open_spiel::phantom_go::PhantomGoBoard::Chain"], ptr %4, i64 0, i64 %53
  %55 = getelementptr inbounds nuw i8, ptr %54, i64 8
  %56 = load i16, ptr %55, align 4
  %57 = add i16 %56, -1
  store i16 %57, ptr %55, align 4
  %58 = getelementptr inbounds nuw i8, ptr %54, i64 4
  %59 = load i16, ptr %58, align 4
  %60 = sub i16 %59, %1
  store i16 %60, ptr %58, align 4
  %61 = load i32, ptr %54, align 4
  %62 = sub i32 %61, %18
  store i32 %62, ptr %54, align 4
  ret void
}